target datalayout = "e-m:e-p270:32:32-p271:32:32-p272:64:64-i64:64-i128:128-f80:128-n8:16:32:64-S128"
target triple = "x86_64-pc-linux-gnu"

%union.pthread_mutex_t = type { %struct.__pthread_mutex_s }
%struct.__pthread_mutex_s = type { i32, i32, i32, i32, i32, i16, i16, %struct.__pthread_internal_list }
%struct.__pthread_internal_list = type { ptr, ptr }
%struct.pmix_tma = type { ptr, ptr, ptr, ptr, ptr, ptr, ptr, ptr }
%struct.pmix_mca_base_var_enum_t = type { %struct.pmix_object_t, i8, ptr, ptr, ptr, ptr, ptr, ptr, i32, ptr }
%struct.pmix_object_t = type { %union.pthread_mutex_t, ptr, i32, %struct.pmix_tma }
%struct.pmix_mca_base_var_enum_flag_t = type { %struct.pmix_mca_base_var_enum_t, ptr }
%struct.pmix_mca_base_var_enum_value_flag_t = type { i32, ptr, i32 }

@.str.18 = private unnamed_addr constant [3 x i8] c", \00", align 1
@.str.31 = private unnamed_addr constant [26 x i8] c"Comma-delimited list of: \00", align 1
@.str.32 = private unnamed_addr constant [14 x i8] c"%s%s0x%x:\22%s\22\00", align 1
@.str.33 = private unnamed_addr constant [2 x i8] c" \00", align 1

; Function Attrs: nounwind uwtable
define internal i32 @enum_dump_flag(ptr noundef %0, ptr noundef %1) #0 {
  %3 = alloca i32, align 4
  %4 = alloca ptr, align 8
  %5 = alloca ptr, align 8
  %6 = alloca ptr, align 8
  %7 = alloca ptr, align 8
  %8 = alloca i32, align 4
  %9 = alloca i32, align 4
  %10 = alloca i32, align 4
  store ptr %0, ptr %4, align 8, !tbaa !3
  store ptr %1, ptr %5, align 8, !tbaa !47
  call void @llvm.lifetime.start.p0(i64 8, ptr %6) #13
  %11 = load ptr, ptr %4, align 8, !tbaa !3
  store ptr %11, ptr %6, align 8, !tbaa !30
  call void @llvm.lifetime.start.p0(i64 8, ptr %7) #13
  call void @llvm.lifetime.start.p0(i64 4, ptr %8) #13
  %12 = load ptr, ptr %5, align 8, !tbaa !47
  store ptr null, ptr %12, align 8, !tbaa !49
  %13 = load ptr, ptr %4, align 8, !tbaa !3
  %14 = icmp eq ptr null, %13
  br i1 %14, label %15, label %16

15:                                               ; preds = %2
  store i32 -1, ptr %3, align 4
  store i32 1, ptr %9, align 4
  br label %67

16:                                               ; preds = %2
  %17 = call noalias ptr @strdup(ptr noundef @.str.31) #13
  %18 = load ptr, ptr %5, align 8, !tbaa !47
  store ptr %17, ptr %18, align 8, !tbaa !49
  %19 = load ptr, ptr %5, align 8, !tbaa !47
  %20 = load ptr, ptr %19, align 8, !tbaa !49
  %21 = icmp eq ptr null, %20
  br i1 %21, label %22, label %23

22:                                               ; preds = %16
  store i32 -29, ptr %3, align 4
  store i32 1, ptr %9, align 4
  br label %67

23:                                               ; preds = %16
  call void @llvm.lifetime.start.p0(i64 4, ptr %10) #13
  store i32 0, ptr %10, align 4, !tbaa !24
  br label %24

24:                                               ; preds = %61, %23
  %25 = load i32, ptr %10, align 4, !tbaa !24
  %26 = load ptr, ptr %4, align 8, !tbaa !3
  %27 = getelementptr inbounds nuw %struct.pmix_mca_base_var_enum_t, ptr %26, i32 0, i32 8
  %28 = load i32, ptr %27, align 8, !tbaa !25
  %29 = icmp slt i32 %25, %28
  br i1 %29, label %31, label %30

30:                                               ; preds = %24
  store i32 2, ptr %9, align 4
  br label %64

31:                                               ; preds = %24
  %32 = load ptr, ptr %5, align 8, !tbaa !47
  %33 = load ptr, ptr %32, align 8, !tbaa !49
  store ptr %33, ptr %7, align 8, !tbaa !49
  %34 = load ptr, ptr %5, align 8, !tbaa !47
  %35 = load ptr, ptr %7, align 8, !tbaa !49
  %36 = load i32, ptr %10, align 4, !tbaa !24
  %37 = icmp ne i32 %36, 0
  %38 = select i1 %37, ptr @.str.18, ptr @.str.33
  %39 = load ptr, ptr %6, align 8, !tbaa !30
  %40 = getelementptr inbounds nuw %struct.pmix_mca_base_var_enum_flag_t, ptr %39, i32 0, i32 1
  %41 = load ptr, ptr %40, align 8, !tbaa !32
  %42 = load i32, ptr %10, align 4, !tbaa !24
  %43 = sext i32 %42 to i64
  %44 = getelementptr inbounds %struct.pmix_mca_base_var_enum_value_flag_t, ptr %41, i64 %43
  %45 = getelementptr inbounds nuw %struct.pmix_mca_base_var_enum_value_flag_t, ptr %44, i32 0, i32 0
  %46 = load i32, ptr %45, align 8, !tbaa !87
  %47 = load ptr, ptr %6, align 8, !tbaa !30
  %48 = getelementptr inbounds nuw %struct.pmix_mca_base_var_enum_flag_t, ptr %47, i32 0, i32 1
  %49 = load ptr, ptr %48, align 8, !tbaa !32
  %50 = load i32, ptr %10, align 4, !tbaa !24
  %51 = sext i32 %50 to i64
  %52 = getelementptr inbounds %struct.pmix_mca_base_var_enum_value_flag_t, ptr %49, i64 %51
  %53 = getelementptr inbounds nuw %struct.pmix_mca_base_var_enum_value_flag_t, ptr %52, i32 0, i32 1
  %54 = load ptr, ptr %53, align 8, !tbaa !42
  %55 = call i32 (ptr, ptr, ...) @asprintf(ptr noundef %34, ptr noundef @.str.32, ptr noundef %35, ptr noundef %38, i32 noundef %46, ptr noundef %54) #13
  store i32 %55, ptr %8, align 4, !tbaa !24
  %56 = load ptr, ptr %7, align 8, !tbaa !49
  call void @free(ptr noundef %56) #13
  %57 = load i32, ptr %8, align 4, !tbaa !24
  %58 = icmp sgt i32 0, %57
  br i1 %58, label %59, label %60

59:                                               ; preds = %31
  store i32 -29, ptr %3, align 4
  store i32 1, ptr %9, align 4
  br label %64

60:                                               ; preds = %31
  br label %61

61:                                               ; preds = %60
  %62 = load i32, ptr %10, align 4, !tbaa !24
  %63 = add nsw i32 %62, 1
  store i32 %63, ptr %10, align 4, !tbaa !24
  br label %24, !llvm.loop !103

64:                                               ; preds = %59, %30
  call void @llvm.lifetime.end.p0(i64 4, ptr %10) #13
  %65 = load i32, ptr %9, align 4
  switch i32 %65, label %67 [
    i32 2, label %66
  ]

66:                                               ; preds = %64
  store i32 0, ptr %3, align 4
  store i32 1, ptr %9, align 4
  br label %67

67:                                               ; preds = %66, %64, %22, %15
  call void @llvm.lifetime.end.p0(i64 4, ptr %8) #13
  call void @llvm.lifetime.end.p0(i64 8, ptr %7) #13
  call void @llvm.lifetime.end.p0(i64 8, ptr %6) #13
  %68 = load i32, ptr %3, align 4
  ret i32 %68
}