; Function Attrs: nounwind uwtable
define internal range(i32 -29, 1) i32 @enum_dump_flag(ptr noundef readonly captures(address_is_null) %0, ptr noundef initializes((0, 8)) %1) #1 {
  store ptr null, ptr %1, align 8, !tbaa !41
  %3 = icmp eq ptr %0, null
  br i1 %3, label %.loopexit, label %4

4:                                                ; preds = %2
  %5 = tail call noalias dereferenceable_or_null(26) ptr @strdup(ptr noundef nonnull @.str.31) #21
  store ptr %5, ptr %1, align 8, !tbaa !41
  %6 = icmp eq ptr %5, null
  br i1 %6, label %.loopexit, label %.preheader

.preheader:                                       ; preds = %4
  %7 = getelementptr inbounds nuw i8, ptr %0, i64 176
  %8 = load i32, ptr %7, align 8, !tbaa !22
  %.not2223 = icmp sgt i32 %8, 0
  br i1 %.not2223, label %.lr.ph, label %.loopexit

.lr.ph:                                           ; preds = %.preheader
  %9 = getelementptr inbounds nuw i8, ptr %0, i64 192
  br label %13

10:                                               ; preds = %13
  %indvars.iv.next = add nuw nsw i64 %indvars.iv, 1
  %11 = load i32, ptr %7, align 8, !tbaa !22
  %12 = sext i32 %11 to i64
  %.not22 = icmp slt i64 %indvars.iv.next, %12
  br i1 %.not22, label %13, label %.loopexit, !llvm.loop !74

13:                                               ; preds = %.lr.ph, %10
  %indvars.iv = phi i64 [ 0, %.lr.ph ], [ %indvars.iv.next, %10 ]
  %14 = load ptr, ptr %1, align 8, !tbaa !41
  %.not = icmp eq i64 %indvars.iv, 0
  %15 = select i1 %.not, ptr @.str.33, ptr @.str.18
  %16 = load ptr, ptr %9, align 8, !tbaa !27
  %17 = getelementptr inbounds nuw %struct.pmix_mca_base_var_enum_value_flag_t, ptr %16, i64 %indvars.iv
  %18 = load i32, ptr %17, align 8, !tbaa !67
  %19 = getelementptr inbounds nuw i8, ptr %17, i64 8
  %20 = load ptr, ptr %19, align 8, !tbaa !37
  %21 = tail call i32 (ptr, ptr, ...) @asprintf(ptr noundef nonnull %1, ptr noundef nonnull @.str.32, ptr noundef %14, ptr noundef nonnull %15, i32 noundef %18, ptr noundef %20) #21
  tail call void @free(ptr noundef %14) #21
  %22 = icmp slt i32 %21, 0
  br i1 %22, label %.loopexit, label %10

.loopexit:                                        ; preds = %13, %10, %.preheader, %4, %2
  %.020 = phi i32 [ -1, %2 ], [ -29, %4 ], [ 0, %.preheader ], [ -29, %13 ], [ 0, %10 ]
  ret i32 %.020
}